target datalayout = "e-m:e-p270:32:32-p271:32:32-p272:64:64-i64:64-i128:128-f80:128-n8:16:32:64-S128"
target triple = "x86_64-unknown-linux-gnu"

%"class.std::__cxx11::basic_string" = type { %"struct.std::__cxx11::basic_string<char>::_Alloc_hider", i64, %union.anon }
%"struct.std::__cxx11::basic_string<char>::_Alloc_hider" = type { ptr }
%union.anon = type { i64, [8 x i8] }

; Function Attrs: mustprogress uwtable
define hidden noundef zeroext i1 @_ZNK6Assimp11B3DImporter7CanReadERKNSt7__cxx1112basic_stringIcSt11char_traitsIcESaIcEEEPNS_8IOSystemEb(ptr noundef nonnull align 8 dereferenceable(312) %this, ptr noundef nonnull align 8 dereferenceable(32) %pFile, ptr noundef %0, i1 noundef zeroext %1) unnamed_addr #4 align 2 personality ptr @__gxx_personality_v0 {
entry:
  %retval = alloca i1, align 1
  %this.addr = alloca ptr, align 8
  %pFile.addr = alloca ptr, align 8
  %.addr = alloca ptr, align 8
  %.addr1 = alloca i8, align 1
  %pos = alloca i64, align 8
  %ext = alloca %"class.std::__cxx11::basic_string", align 8
  %cleanup.dest.slot = alloca i32, align 4
  %exn.slot = alloca ptr, align 8
  %ehselector.slot = alloca i32, align 4
  store ptr %this, ptr %this.addr, align 8
  store ptr %pFile, ptr %pFile.addr, align 8
  store ptr %0, ptr %.addr, align 8
  %frombool = zext i1 %1 to i8
  store i8 %frombool, ptr %.addr1, align 1
  %2 = load ptr, ptr %pFile.addr, align 8
  %call = call noundef i64 @_ZNKSt7__cxx1112basic_stringIcSt11char_traitsIcESaIcEE12find_last_ofEcm(ptr noundef nonnull align 8 dereferenceable(32) %2, i8 noundef signext 46, i64 noundef -1) #15
  store i64 %call, ptr %pos, align 8
  %3 = load i64, ptr %pos, align 8
  %cmp = icmp eq i64 %3, -1
  br i1 %cmp, label %if.then, label %if.end

if.then:                                          ; preds = %entry
  store i1 false, ptr %retval, align 1
  br label %return

if.end:                                           ; preds = %entry
  %4 = load ptr, ptr %pFile.addr, align 8
  %5 = load i64, ptr %pos, align 8
  %add = add i64 %5, 1
  call void @_ZNKSt7__cxx1112basic_stringIcSt11char_traitsIcESaIcEE6substrEmm(ptr sret(%"class.std::__cxx11::basic_string") align 8 %ext, ptr noundef nonnull align 8 dereferenceable(32) %4, i64 noundef %add, i64 noundef -1)
  %call3 = call noundef i64 @_ZNKSt7__cxx1112basic_stringIcSt11char_traitsIcESaIcEE4sizeEv(ptr noundef nonnull align 8 dereferenceable(32) %ext) #15
  %cmp4 = icmp ne i64 %call3, 3
  br i1 %cmp4, label %if.then5, label %if.end6

if.then5:                                         ; preds = %if.end
  store i1 false, ptr %retval, align 1
  store i32 1, ptr %cleanup.dest.slot, align 4
  br label %cleanup

if.end6:                                          ; preds = %if.end
  %call7 = invoke noundef nonnull align 1 dereferenceable(1) ptr @_ZNSt7__cxx1112basic_stringIcSt11char_traitsIcESaIcEEixEm(ptr noundef nonnull align 8 dereferenceable(32) %ext, i64 noundef 0)
          to label %invoke.cont unwind label %lpad

invoke.cont:                                      ; preds = %if.end6
  %6 = load i8, ptr %call7, align 1
  %conv = sext i8 %6 to i32
  %cmp8 = icmp eq i32 %conv, 98
  br i1 %cmp8, label %land.lhs.true, label %lor.lhs.false

lor.lhs.false:                                    ; preds = %invoke.cont
  %call10 = invoke noundef nonnull align 1 dereferenceable(1) ptr @_ZNSt7__cxx1112basic_stringIcSt11char_traitsIcESaIcEEixEm(ptr noundef nonnull align 8 dereferenceable(32) %ext, i64 noundef 0)
          to label %invoke.cont9 unwind label %lpad

invoke.cont9:                                     ; preds = %lor.lhs.false
  %7 = load i8, ptr %call10, align 1
  %conv11 = sext i8 %7 to i32
  %cmp12 = icmp eq i32 %conv11, 66
  br i1 %cmp12, label %land.lhs.true, label %land.end

land.lhs.true:                                    ; preds = %invoke.cont9, %invoke.cont
  %call14 = invoke noundef nonnull align 1 dereferenceable(1) ptr @_ZNSt7__cxx1112basic_stringIcSt11char_traitsIcESaIcEEixEm(ptr noundef nonnull align 8 dereferenceable(32) %ext, i64 noundef 1)
          to label %invoke.cont13 unwind label %lpad

invoke.cont13:                                    ; preds = %land.lhs.true
  %8 = load i8, ptr %call14, align 1
  %conv15 = sext i8 %8 to i32
  %cmp16 = icmp eq i32 %conv15, 51
  br i1 %cmp16, label %land.rhs, label %land.end

land.rhs:                                         ; preds = %invoke.cont13
  %call18 = invoke noundef nonnull align 1 dereferenceable(1) ptr @_ZNSt7__cxx1112basic_stringIcSt11char_traitsIcESaIcEEixEm(ptr noundef nonnull align 8 dereferenceable(32) %ext, i64 noundef 2)
          to label %invoke.cont17 unwind label %lpad

invoke.cont17:                                    ; preds = %land.rhs
  %9 = load i8, ptr %call18, align 1
  %conv19 = sext i8 %9 to i32
  %cmp20 = icmp eq i32 %conv19, 100
  br i1 %cmp20, label %lor.end, label %lor.rhs

lor.rhs:                                          ; preds = %invoke.cont17
  %call22 = invoke noundef nonnull align 1 dereferenceable(1) ptr @_ZNSt7__cxx1112basic_stringIcSt11char_traitsIcESaIcEEixEm(ptr noundef nonnull align 8 dereferenceable(32) %ext, i64 noundef 2)
          to label %invoke.cont21 unwind label %lpad

invoke.cont21:                                    ; preds = %lor.rhs
  %10 = load i8, ptr %call22, align 1
  %conv23 = sext i8 %10 to i32
  %cmp24 = icmp eq i32 %conv23, 68
  br label %lor.end

lor.end:                                          ; preds = %invoke.cont21, %invoke.cont17
  %11 = phi i1 [ true, %invoke.cont17 ], [ %cmp24, %invoke.cont21 ]
  br label %land.end

land.end:                                         ; preds = %lor.end, %invoke.cont13, %invoke.cont9
  %12 = phi i1 [ false, %invoke.cont13 ], [ false, %invoke.cont9 ], [ %11, %lor.end ]
  store i1 %12, ptr %retval, align 1
  store i32 1, ptr %cleanup.dest.slot, align 4
  br label %cleanup

lpad:                                             ; preds = %lor.rhs, %land.rhs, %land.lhs.true, %lor.lhs.false, %if.end6
  %13 = landingpad { ptr, i32 }
          cleanup
  %14 = extractvalue { ptr, i32 } %13, 0
  store ptr %14, ptr %exn.slot, align 8
  %15 = extractvalue { ptr, i32 } %13, 1
  store i32 %15, ptr %ehselector.slot, align 4
  call void @_ZNSt7__cxx1112basic_stringIcSt11char_traitsIcESaIcEED1Ev(ptr noundef nonnull align 8 dereferenceable(32) %ext) #15
  br label %eh.resume

cleanup:                                          ; preds = %land.end, %if.then5
  call void @_ZNSt7__cxx1112basic_stringIcSt11char_traitsIcESaIcEED1Ev(ptr noundef nonnull align 8 dereferenceable(32) %ext) #15
  br label %return

return:                                           ; preds = %cleanup, %if.then
  %16 = load i1, ptr %retval, align 1
  ret i1 %16

eh.resume:                                        ; preds = %lpad
  %exn = load ptr, ptr %exn.slot, align 8
  %sel = load i32, ptr %ehselector.slot, align 4
  %lpad.val = insertvalue { ptr, i32 } poison, ptr %exn, 0
  %lpad.val25 = insertvalue { ptr, i32 } %lpad.val, i32 %sel, 1
  resume { ptr, i32 } %lpad.val25
}