; Function Attrs: mustprogress uwtable
define hidden noundef zeroext i1 @_ZNK6Assimp11B3DImporter7CanReadERKNSt7__cxx1112basic_stringIcSt11char_traitsIcESaIcEEEPNS_8IOSystemEb(ptr nocapture nonnull readnone align 8 %this, ptr noundef nonnull align 8 dereferenceable(32) %pFile, ptr nocapture readnone %0, i1 zeroext %1) unnamed_addr #3 align 2 personality ptr @__gxx_personality_v0 {
entry:
  %ext = alloca %"class.std::__cxx11::basic_string", align 8
  %call = tail call noundef i64 @_ZNKSt7__cxx1112basic_stringIcSt11char_traitsIcESaIcEE12find_last_ofEcm(ptr noundef nonnull align 8 dereferenceable(32) %pFile, i8 noundef signext 46, i64 noundef -1) #22
  %cmp = icmp eq i64 %call, -1
  br i1 %cmp, label %return, label %if.end

if.end:                                           ; preds = %entry
  %add = add nuw i64 %call, 1
  call void @_ZNKSt7__cxx1112basic_stringIcSt11char_traitsIcESaIcEE6substrEmm(ptr nonnull sret(%"class.std::__cxx11::basic_string") align 8 %ext, ptr noundef nonnull align 8 dereferenceable(32) %pFile, i64 noundef %add, i64 noundef -1)
  %call3 = call noundef i64 @_ZNKSt7__cxx1112basic_stringIcSt11char_traitsIcESaIcEE4sizeEv(ptr noundef nonnull align 8 dereferenceable(32) %ext) #22
  %cmp4.not = icmp eq i64 %call3, 3
  br i1 %cmp4.not, label %if.end6, label %cleanup

if.end6:                                          ; preds = %if.end
  %call7 = invoke noundef nonnull align 1 dereferenceable(1) ptr @_ZNSt7__cxx1112basic_stringIcSt11char_traitsIcESaIcEEixEm(ptr noundef nonnull align 8 dereferenceable(32) %ext, i64 noundef 0)
          to label %invoke.cont unwind label %lpad

invoke.cont:                                      ; preds = %if.end6
  %2 = load i8, ptr %call7, align 1
  %cmp8 = icmp eq i8 %2, 98
  br i1 %cmp8, label %land.lhs.true, label %lor.lhs.false

lor.lhs.false:                                    ; preds = %invoke.cont
  %call10 = invoke noundef nonnull align 1 dereferenceable(1) ptr @_ZNSt7__cxx1112basic_stringIcSt11char_traitsIcESaIcEEixEm(ptr noundef nonnull align 8 dereferenceable(32) %ext, i64 noundef 0)
          to label %invoke.cont9 unwind label %lpad

invoke.cont9:                                     ; preds = %lor.lhs.false
  %3 = load i8, ptr %call10, align 1
  %cmp12 = icmp eq i8 %3, 66
  br i1 %cmp12, label %land.lhs.true, label %cleanup

land.lhs.true:                                    ; preds = %invoke.cont9, %invoke.cont
  %call14 = invoke noundef nonnull align 1 dereferenceable(1) ptr @_ZNSt7__cxx1112basic_stringIcSt11char_traitsIcESaIcEEixEm(ptr noundef nonnull align 8 dereferenceable(32) %ext, i64 noundef 1)
          to label %invoke.cont13 unwind label %lpad

invoke.cont13:                                    ; preds = %land.lhs.true
  %4 = load i8, ptr %call14, align 1
  %cmp16 = icmp eq i8 %4, 51
  br i1 %cmp16, label %land.rhs, label %cleanup

land.rhs:                                         ; preds = %invoke.cont13
  %call18 = invoke noundef nonnull align 1 dereferenceable(1) ptr @_ZNSt7__cxx1112basic_stringIcSt11char_traitsIcESaIcEEixEm(ptr noundef nonnull align 8 dereferenceable(32) %ext, i64 noundef 2)
          to label %invoke.cont17 unwind label %lpad

invoke.cont17:                                    ; preds = %land.rhs
  %5 = load i8, ptr %call18, align 1
  %cmp20 = icmp eq i8 %5, 100
  br i1 %cmp20, label %cleanup, label %lor.rhs

lor.rhs:                                          ; preds = %invoke.cont17
  %call22 = invoke noundef nonnull align 1 dereferenceable(1) ptr @_ZNSt7__cxx1112basic_stringIcSt11char_traitsIcESaIcEEixEm(ptr noundef nonnull align 8 dereferenceable(32) %ext, i64 noundef 2)
          to label %invoke.cont21 unwind label %lpad

invoke.cont21:                                    ; preds = %lor.rhs
  %6 = load i8, ptr %call22, align 1
  %cmp24 = icmp eq i8 %6, 68
  br label %cleanup

lpad:                                             ; preds = %lor.rhs, %land.rhs, %land.lhs.true, %lor.lhs.false, %if.end6
  %7 = landingpad { ptr, i32 }
          cleanup
  call void @_ZNSt7__cxx1112basic_stringIcSt11char_traitsIcESaIcEED1Ev(ptr noundef nonnull align 8 dereferenceable(32) %ext) #22
  resume { ptr, i32 } %7

cleanup:                                          ; preds = %invoke.cont9, %invoke.cont13, %invoke.cont21, %invoke.cont17, %if.end
  %retval.0 = phi i1 [ false, %if.end ], [ false, %invoke.cont13 ], [ false, %invoke.cont9 ], [ true, %invoke.cont17 ], [ %cmp24, %invoke.cont21 ]
  call void @_ZNSt7__cxx1112basic_stringIcSt11char_traitsIcESaIcEED1Ev(ptr noundef nonnull align 8 dereferenceable(32) %ext) #22
  br label %return

return:                                           ; preds = %entry, %cleanup
  %retval.1 = phi i1 [ %retval.0, %cleanup ], [ false, %entry ]
  ret i1 %retval.1
}